target datalayout = "e-m:e-p270:32:32-p271:32:32-p272:64:64-i64:64-i128:128-f80:128-n8:16:32:64-S128"
target triple = "x86_64-pc-linux-gnu"

%"class.nanogui::TextBox" = type { %"class.nanogui::Widget.base", i8, i8, i8, %"class.std::__cxx11::basic_string", %"class.std::__cxx11::basic_string", i32, %"class.std::__cxx11::basic_string", %"class.std::__cxx11::basic_string", i32, %"class.std::function", i8, %"class.std::__cxx11::basic_string", %"class.std::__cxx11::basic_string", i32, i32, %"struct.nanogui::Array", %"struct.nanogui::Array", %"struct.nanogui::Array", i32, float, double }
%"class.nanogui::Widget.base" = type <{ %"class.nanogui::Object.base", [4 x i8], ptr, %"class.nanogui::ref", %"class.nanogui::ref.0", %"struct.nanogui::Array", %"struct.nanogui::Array", %"struct.nanogui::Array", %"class.std::vector", i8, i8, i8, i8, [4 x i8], %"class.std::__cxx11::basic_string", i32, float, i32 }>
%"class.nanogui::Object.base" = type <{ ptr, %"struct.std::atomic" }>
%"struct.std::atomic" = type { %"struct.std::__atomic_base" }
%"struct.std::__atomic_base" = type { i32 }
%"class.nanogui::ref" = type { ptr }
%"class.nanogui::ref.0" = type { ptr }
%"class.std::vector" = type { %"struct.std::_Vector_base" }
%"struct.std::_Vector_base" = type { %"struct.std::_Vector_base<nanogui::Widget *, std::allocator<nanogui::Widget *>>::_Vector_impl" }
%"struct.std::_Vector_base<nanogui::Widget *, std::allocator<nanogui::Widget *>>::_Vector_impl" = type { %"struct.std::_Vector_base<nanogui::Widget *, std::allocator<nanogui::Widget *>>::_Vector_impl_data" }
%"struct.std::_Vector_base<nanogui::Widget *, std::allocator<nanogui::Widget *>>::_Vector_impl_data" = type { ptr, ptr, ptr }
%"class.std::function" = type { %"class.std::_Function_base", ptr }
%"class.std::_Function_base" = type { %"union.std::_Any_data", ptr }
%"union.std::_Any_data" = type { %"union.std::_Nocopy_types" }
%"union.std::_Nocopy_types" = type { { i64, i64 } }
%"class.std::__cxx11::basic_string" = type { %"struct.std::__cxx11::basic_string<char>::_Alloc_hider", i64, %union.anon }
%"struct.std::__cxx11::basic_string<char>::_Alloc_hider" = type { ptr }
%union.anon = type { i64, [8 x i8] }
%"struct.nanogui::Array" = type { [2 x i32] }
%"class.nanogui::Widget" = type <{ %"class.nanogui::Object.base", [4 x i8], ptr, %"class.nanogui::ref", %"class.nanogui::ref.0", %"struct.nanogui::Array", %"struct.nanogui::Array", %"struct.nanogui::Array", %"class.std::vector", i8, i8, i8, i8, [4 x i8], %"class.std::__cxx11::basic_string", i32, float, i32, [4 x i8] }>

; Function Attrs: mustprogress nounwind uwtable
define linkonce_odr hidden noundef nonnull align 4 dereferenceable(4) ptr @_ZNK7nanogui5ArrayIiLm2EE1yILm2ETnNSt9enable_ifIXgeT_Li2EEiE4typeELi0EEERKiv(ptr noundef nonnull align 4 dereferenceable(8) %0) #5 comdat align 2 {
  %2 = alloca ptr, align 8
  store ptr %0, ptr %2, align 8
  %3 = load ptr, ptr %2, align 8
  %4 = getelementptr inbounds %"struct.nanogui::Array", ptr %3, i32 0, i32 0
  %5 = getelementptr inbounds [2 x i32], ptr %4, i64 0, i64 1
  ret ptr %5
}

; Function Attrs: mustprogress nounwind uwtable
define linkonce_odr hidden noundef nonnull align 4 dereferenceable(4) ptr @_ZN7nanogui5ArrayIiLm2EE1yILm2ETnNSt9enable_ifIXgeT_Li2EEiE4typeELi0EEERiv(ptr noundef nonnull align 4 dereferenceable(8) %0) #5 comdat align 2 {
  %2 = alloca ptr, align 8
  store ptr %0, ptr %2, align 8
  %3 = load ptr, ptr %2, align 8
  %4 = getelementptr inbounds %"struct.nanogui::Array", ptr %3, i32 0, i32 0
  %5 = getelementptr inbounds [2 x i32], ptr %4, i64 0, i64 1
  ret ptr %5
}

; Function Attrs: mustprogress nounwind uwtable
define linkonce_odr hidden noundef nonnull align 4 dereferenceable(4) ptr @_ZN7nanogui5ArrayIiLm2EE1xILm2ETnNSt9enable_ifIXgeT_Li1EEiE4typeELi0EEERiv(ptr noundef nonnull align 4 dereferenceable(8) %0) #5 comdat align 2 {
  %2 = alloca ptr, align 8
  store ptr %0, ptr %2, align 8
  %3 = load ptr, ptr %2, align 8
  %4 = getelementptr inbounds %"struct.nanogui::Array", ptr %3, i32 0, i32 0
  %5 = getelementptr inbounds [2 x i32], ptr %4, i64 0, i64 0
  ret ptr %5
}

; Function Attrs: mustprogress nounwind uwtable
define linkonce_odr hidden noundef nonnull align 4 dereferenceable(4) ptr @_ZNK7nanogui5ArrayIiLm2EE1xILm2ETnNSt9enable_ifIXgeT_Li1EEiE4typeELi0EEERKiv(ptr noundef nonnull align 4 dereferenceable(8) %0) #5 comdat align 2 {
  %2 = alloca ptr, align 8
  store ptr %0, ptr %2, align 8
  %3 = load ptr, ptr %2, align 8
  %4 = getelementptr inbounds %"struct.nanogui::Array", ptr %3, i32 0, i32 0
  %5 = getelementptr inbounds [2 x i32], ptr %4, i64 0, i64 0
  ret ptr %5
}

; Function Attrs: mustprogress uwtable
define hidden noundef i32 @_ZN7nanogui7TextBox9spin_areaERKNS_5ArrayIiLm2EEE(ptr noundef nonnull align 8 dereferenceable(440) %0, ptr noundef nonnull align 4 dereferenceable(8) %1) #4 align 2 {
  %3 = alloca i32, align 4
  %4 = alloca ptr, align 8
  %5 = alloca ptr, align 8
  store ptr %0, ptr %4, align 8
  store ptr %1, ptr %5, align 8
  %6 = load ptr, ptr %4, align 8
  %7 = load ptr, ptr %5, align 8
  %8 = call noundef nonnull align 4 dereferenceable(4) ptr @_ZNK7nanogui5ArrayIiLm2EE1xILm2ETnNSt9enable_ifIXgeT_Li1EEiE4typeELi0EEERKiv(ptr noundef nonnull align 4 dereferenceable(8) %7)
  %9 = load i32, ptr %8, align 4
  %10 = getelementptr inbounds %"class.nanogui::Widget", ptr %6, i32 0, i32 5
  %11 = call noundef nonnull align 4 dereferenceable(4) ptr @_ZN7nanogui5ArrayIiLm2EE1xILm2ETnNSt9enable_ifIXgeT_Li1EEiE4typeELi0EEERiv(ptr noundef nonnull align 4 dereferenceable(8) %10)
  %12 = load i32, ptr %11, align 4
  %13 = sub nsw i32 %9, %12
  %14 = icmp sle i32 0, %13
  br i1 %14, label %15, label %81

15:                                               ; preds = %2
  %16 = load ptr, ptr %5, align 8
  %17 = call noundef nonnull align 4 dereferenceable(4) ptr @_ZNK7nanogui5ArrayIiLm2EE1xILm2ETnNSt9enable_ifIXgeT_Li1EEiE4typeELi0EEERKiv(ptr noundef nonnull align 4 dereferenceable(8) %16)
  %18 = load i32, ptr %17, align 4
  %19 = getelementptr inbounds %"class.nanogui::Widget", ptr %6, i32 0, i32 5
  %20 = call noundef nonnull align 4 dereferenceable(4) ptr @_ZN7nanogui5ArrayIiLm2EE1xILm2ETnNSt9enable_ifIXgeT_Li1EEiE4typeELi0EEERiv(ptr noundef nonnull align 4 dereferenceable(8) %19)
  %21 = load i32, ptr %20, align 4
  %22 = sub nsw i32 %18, %21
  %23 = sitofp i32 %22 to float
  %24 = fcmp olt float %23, 1.400000e+01
  br i1 %24, label %25, label %81

25:                                               ; preds = %15
  %26 = getelementptr inbounds %"class.nanogui::Widget", ptr %6, i32 0, i32 6
  %27 = call noundef nonnull align 4 dereferenceable(4) ptr @_ZN7nanogui5ArrayIiLm2EE1yILm2ETnNSt9enable_ifIXgeT_Li2EEiE4typeELi0EEERiv(ptr noundef nonnull align 4 dereferenceable(8) %26)
  %28 = load i32, ptr %27, align 4
  %29 = load ptr, ptr %5, align 8
  %30 = call noundef nonnull align 4 dereferenceable(4) ptr @_ZNK7nanogui5ArrayIiLm2EE1yILm2ETnNSt9enable_ifIXgeT_Li2EEiE4typeELi0EEERKiv(ptr noundef nonnull align 4 dereferenceable(8) %29)
  %31 = load i32, ptr %30, align 4
  %32 = getelementptr inbounds %"class.nanogui::Widget", ptr %6, i32 0, i32 5
  %33 = call noundef nonnull align 4 dereferenceable(4) ptr @_ZN7nanogui5ArrayIiLm2EE1yILm2ETnNSt9enable_ifIXgeT_Li2EEiE4typeELi0EEERiv(ptr noundef nonnull align 4 dereferenceable(8) %32)
  %34 = load i32, ptr %33, align 4
  %35 = sub nsw i32 %31, %34
  %36 = icmp sge i32 %28, %35
  br i1 %36, label %37, label %53

37:                                               ; preds = %25
  %38 = load ptr, ptr %5, align 8
  %39 = call noundef nonnull align 4 dereferenceable(4) ptr @_ZNK7nanogui5ArrayIiLm2EE1yILm2ETnNSt9enable_ifIXgeT_Li2EEiE4typeELi0EEERKiv(ptr noundef nonnull align 4 dereferenceable(8) %38)
  %40 = load i32, ptr %39, align 4
  %41 = getelementptr inbounds %"class.nanogui::Widget", ptr %6, i32 0, i32 5
  %42 = call noundef nonnull align 4 dereferenceable(4) ptr @_ZN7nanogui5ArrayIiLm2EE1yILm2ETnNSt9enable_ifIXgeT_Li2EEiE4typeELi0EEERiv(ptr noundef nonnull align 4 dereferenceable(8) %41)
  %43 = load i32, ptr %42, align 4
  %44 = sub nsw i32 %40, %43
  %45 = sitofp i32 %44 to float
  %46 = getelementptr inbounds %"class.nanogui::Widget", ptr %6, i32 0, i32 6
  %47 = call noundef nonnull align 4 dereferenceable(4) ptr @_ZN7nanogui5ArrayIiLm2EE1yILm2ETnNSt9enable_ifIXgeT_Li2EEiE4typeELi0EEERiv(ptr noundef nonnull align 4 dereferenceable(8) %46)
  %48 = load i32, ptr %47, align 4
  %49 = sitofp i32 %48 to float
  %50 = fdiv float %49, 2.000000e+00
  %51 = fcmp ole float %45, %50
  br i1 %51, label %52, label %53

52:                                               ; preds = %37
  store i32 1, ptr %3, align 4
  br label %82

53:                                               ; preds = %37, %25
  %54 = load ptr, ptr %5, align 8
  %55 = call noundef nonnull align 4 dereferenceable(4) ptr @_ZNK7nanogui5ArrayIiLm2EE1yILm2ETnNSt9enable_ifIXgeT_Li2EEiE4typeELi0EEERKiv(ptr noundef nonnull align 4 dereferenceable(8) %54)
  %56 = load i32, ptr %55, align 4
  %57 = getelementptr inbounds %"class.nanogui::Widget", ptr %6, i32 0, i32 5
  %58 = call noundef nonnull align 4 dereferenceable(4) ptr @_ZN7nanogui5ArrayIiLm2EE1yILm2ETnNSt9enable_ifIXgeT_Li2EEiE4typeELi0EEERiv(ptr noundef nonnull align 4 dereferenceable(8) %57)
  %59 = load i32, ptr %58, align 4
  %60 = sub nsw i32 %56, %59
  %61 = sitofp i32 %60 to float
  %62 = fcmp ole float 0.000000e+00, %61
  br i1 %62, label %63, label %79

63:                                               ; preds = %53
  %64 = load ptr, ptr %5, align 8
  %65 = call noundef nonnull align 4 dereferenceable(4) ptr @_ZNK7nanogui5ArrayIiLm2EE1yILm2ETnNSt9enable_ifIXgeT_Li2EEiE4typeELi0EEERKiv(ptr noundef nonnull align 4 dereferenceable(8) %64)
  %66 = load i32, ptr %65, align 4
  %67 = getelementptr inbounds %"class.nanogui::Widget", ptr %6, i32 0, i32 5
  %68 = call noundef nonnull align 4 dereferenceable(4) ptr @_ZN7nanogui5ArrayIiLm2EE1yILm2ETnNSt9enable_ifIXgeT_Li2EEiE4typeELi0EEERiv(ptr noundef nonnull align 4 dereferenceable(8) %67)
  %69 = load i32, ptr %68, align 4
  %70 = sub nsw i32 %66, %69
  %71 = sitofp i32 %70 to float
  %72 = getelementptr inbounds %"class.nanogui::Widget", ptr %6, i32 0, i32 6
  %73 = call noundef nonnull align 4 dereferenceable(4) ptr @_ZN7nanogui5ArrayIiLm2EE1yILm2ETnNSt9enable_ifIXgeT_Li2EEiE4typeELi0EEERiv(ptr noundef nonnull align 4 dereferenceable(8) %72)
  %74 = load i32, ptr %73, align 4
  %75 = sitofp i32 %74 to float
  %76 = fdiv float %75, 2.000000e+00
  %77 = fcmp ogt float %71, %76
  br i1 %77, label %78, label %79

78:                                               ; preds = %63
  store i32 2, ptr %3, align 4
  br label %82

79:                                               ; preds = %63, %53
  br label %80

80:                                               ; preds = %79
  br label %81

81:                                               ; preds = %80, %15, %2
  store i32 0, ptr %3, align 4
  br label %82

82:                                               ; preds = %81, %78, %52
  %83 = load i32, ptr %3, align 4
  ret i32 %83
}

; Function Attrs: mustprogress nounwind uwtable
define linkonce_odr hidden noundef zeroext i1 @_ZNK7nanogui6Widget7focusedEv(ptr noundef nonnull align 8 dereferenceable(140) %0) #5 comdat align 2 {
  %2 = alloca ptr, align 8
  store ptr %0, ptr %2, align 8
  %3 = load ptr, ptr %2, align 8
  %4 = getelementptr inbounds %"class.nanogui::Widget", ptr %3, i32 0, i32 11
  %5 = load i8, ptr %4, align 2
  %6 = trunc i8 %5 to i1
  ret i1 %6
}

; Function Attrs: mustprogress nounwind uwtable
define linkonce_odr hidden void @_ZN7nanogui6Widget10set_cursorENS_6CursorE(ptr noundef nonnull align 8 dereferenceable(140) %0, i32 noundef %1) #5 comdat align 2 {
  %3 = alloca ptr, align 8
  %4 = alloca i32, align 4
  store ptr %0, ptr %3, align 8
  store i32 %1, ptr %4, align 4
  %5 = load ptr, ptr %3, align 8
  %6 = load i32, ptr %4, align 4
  %7 = getelementptr inbounds %"class.nanogui::Widget", ptr %5, i32 0, i32 17
  store i32 %6, ptr %7, align 8
  ret void
}

; Function Attrs: mustprogress uwtable
define hidden noundef zeroext i1 @_ZN7nanogui7TextBox18mouse_motion_eventERKNS_5ArrayIiLm2EEES4_ii(ptr noundef nonnull align 8 dereferenceable(440) %0, ptr noundef nonnull align 4 dereferenceable(8) %1, ptr noundef nonnull align 4 dereferenceable(8) %2, i32 noundef %3, i32 noundef %4) unnamed_addr #4 align 2 {
  %6 = alloca ptr, align 8
  %7 = alloca ptr, align 8
  %8 = alloca ptr, align 8
  %9 = alloca i32, align 4
  %10 = alloca i32, align 4
  store ptr %0, ptr %6, align 8
  store ptr %1, ptr %7, align 8
  store ptr %2, ptr %8, align 8
  store i32 %3, ptr %9, align 4
  store i32 %4, ptr %10, align 4
  %11 = load ptr, ptr %6, align 8
  %12 = load ptr, ptr %7, align 8
  %13 = getelementptr inbounds %"class.nanogui::TextBox", ptr %11, i32 0, i32 16
  call void @llvm.memcpy.p0.p0.i64(ptr align 8 %13, ptr align 4 %12, i64 8, i1 false)
  %14 = getelementptr inbounds %"class.nanogui::TextBox", ptr %11, i32 0, i32 1
  %15 = load i8, ptr %14, align 4
  %16 = trunc i8 %15 to i1
  br i1 %16, label %18, label %17

17:                                               ; preds = %5
  call void @_ZN7nanogui6Widget10set_cursorENS_6CursorE(ptr noundef nonnull align 8 dereferenceable(140) %11, i32 noundef 0)
  br label %31

18:                                               ; preds = %5
  %19 = getelementptr inbounds %"class.nanogui::TextBox", ptr %11, i32 0, i32 2
  %20 = load i8, ptr %19, align 1
  %21 = trunc i8 %20 to i1
  br i1 %21, label %22, label %29

22:                                               ; preds = %18
  %23 = call noundef zeroext i1 @_ZNK7nanogui6Widget7focusedEv(ptr noundef nonnull align 8 dereferenceable(140) %11)
  br i1 %23, label %29, label %24

24:                                               ; preds = %22
  %25 = getelementptr inbounds %"class.nanogui::TextBox", ptr %11, i32 0, i32 16
  %26 = call noundef i32 @_ZN7nanogui7TextBox9spin_areaERKNS_5ArrayIiLm2EEE(ptr noundef nonnull align 8 dereferenceable(440) %11, ptr noundef nonnull align 4 dereferenceable(8) %25)
  %27 = icmp ne i32 %26, 0
  br i1 %27, label %28, label %29

28:                                               ; preds = %24
  call void @_ZN7nanogui6Widget10set_cursorENS_6CursorE(ptr noundef nonnull align 8 dereferenceable(140) %11, i32 noundef 3)
  br label %30

29:                                               ; preds = %24, %22, %18
  call void @_ZN7nanogui6Widget10set_cursorENS_6CursorE(ptr noundef nonnull align 8 dereferenceable(140) %11, i32 noundef 1)
  br label %30

30:                                               ; preds = %29, %28
  br label %31

31:                                               ; preds = %30, %17
  %32 = getelementptr inbounds %"class.nanogui::TextBox", ptr %11, i32 0, i32 1
  %33 = load i8, ptr %32, align 4
  %34 = trunc i8 %33 to i1
  ret i1 %34
}