; Function Attrs: mustprogress nofree norecurse nosync nounwind willreturn memory(argmem: readwrite) uwtable
define hidden noundef zeroext i1 @_ZN7nanogui7TextBox18mouse_motion_eventERKNS_5ArrayIiLm2EEES4_ii(ptr nocapture noundef nonnull align 8 dereferenceable(440) %0, ptr nocapture noundef nonnull readonly align 4 dereferenceable(8) %1, ptr nocapture nonnull readnone align 4 %2, i32 %3, i32 %4) unnamed_addr #10 align 2 {
  %6 = getelementptr inbounds i8, ptr %0, i64 400
  %7 = load i64, ptr %1, align 4
  store i64 %7, ptr %6, align 8
  %8 = getelementptr inbounds i8, ptr %0, i64 140
  %9 = load i8, ptr %8, align 4
  %10 = and i8 %9, 1
  %.not = icmp eq i8 %10, 0
  %11 = trunc i64 %7 to i32
  %12 = lshr i64 %7, 32
  %13 = trunc i64 %12 to i32
  br i1 %.not, label %44, label %14

14:                                               ; preds = %5
  %15 = getelementptr inbounds i8, ptr %0, i64 141
  %16 = load i8, ptr %15, align 1
  %17 = and i8 %16, 1
  %.not2 = icmp eq i8 %17, 0
  br i1 %.not2, label %_ZN7nanogui7TextBox9spin_areaERKNS_5ArrayIiLm2EEE.exit, label %18

18:                                               ; preds = %14
  %19 = getelementptr inbounds i8, ptr %0, i64 90
  %20 = load i8, ptr %19, align 2
  %21 = and i8 %20, 1
  %.not6 = icmp eq i8 %21, 0
  br i1 %.not6, label %22, label %_ZN7nanogui7TextBox9spin_areaERKNS_5ArrayIiLm2EEE.exit

22:                                               ; preds = %18
  %23 = getelementptr inbounds i8, ptr %0, i64 40
  %24 = load i32, ptr %23, align 8
  %.not.i = icmp sle i32 %24, %11
  %25 = sub nsw i32 %11, %24
  %26 = icmp slt i32 %25, 14
  %or.cond.i = select i1 %.not.i, i1 %26, i1 false
  br i1 %or.cond.i, label %27, label %_ZN7nanogui7TextBox9spin_areaERKNS_5ArrayIiLm2EEE.exit

27:                                               ; preds = %22
  %28 = getelementptr inbounds i8, ptr %0, i64 52
  %29 = load i32, ptr %28, align 4
  %30 = getelementptr inbounds i8, ptr %0, i64 44
  %31 = load i32, ptr %30, align 4
  %32 = sub nsw i32 %13, %31
  %.not7.i = icmp slt i32 %29, %32
  br i1 %.not7.i, label %38, label %33

33:                                               ; preds = %27
  %34 = sitofp i32 %32 to float
  %35 = sitofp i32 %29 to float
  %36 = fmul float %35, 5.000000e-01
  %37 = fcmp ult float %36, %34
  br i1 %37, label %38, label %44

38:                                               ; preds = %33, %27
  %.not8.i = icmp sgt i32 %31, %13
  br i1 %.not8.i, label %_ZN7nanogui7TextBox9spin_areaERKNS_5ArrayIiLm2EEE.exit, label %39

39:                                               ; preds = %38
  %40 = sitofp i32 %32 to float
  %41 = sitofp i32 %29 to float
  %42 = fmul float %41, 5.000000e-01
  %43 = fcmp olt float %42, %40
  br i1 %43, label %44, label %_ZN7nanogui7TextBox9spin_areaERKNS_5ArrayIiLm2EEE.exit

_ZN7nanogui7TextBox9spin_areaERKNS_5ArrayIiLm2EEE.exit: ; preds = %39, %38, %22, %18, %14
  br label %44

44:                                               ; preds = %39, %33, %5, %_ZN7nanogui7TextBox9spin_areaERKNS_5ArrayIiLm2EEE.exit
  %.sink = phi i32 [ 1, %_ZN7nanogui7TextBox9spin_areaERKNS_5ArrayIiLm2EEE.exit ], [ 0, %5 ], [ 3, %33 ], [ 3, %39 ]
  %45 = getelementptr inbounds i8, ptr %0, i64 136
  store i32 %.sink, ptr %45, align 8
  %46 = icmp ne i8 %10, 0
  ret i1 %46
}